; Function Attrs: mustprogress noinline uwtable
define hidden noundef ptr @_ZN6google8protobuf5Arena18CreateMaybeMessageIN12opencv_caffe13LossParameterEJEEEPT_PS1_DpOT0_(ptr noundef %0) local_unnamed_addr #20 align 2 personality ptr @__gxx_personality_v0 {
  %2 = icmp eq ptr %0, null
  br i1 %2, label %_ZN6google8protobuf5Arena14InternalHelperIN12opencv_caffe13LossParameterEE3NewEv.exit, label %5

_ZN6google8protobuf5Arena14InternalHelperIN12opencv_caffe13LossParameterEE3NewEv.exit: ; preds = %1
  %3 = tail call noalias noundef nonnull dereferenceable(40) ptr @_Znwm(i64 noundef 40) #28
  %4 = getelementptr inbounds nuw i8, ptr %3, i64 8
  store i64 0, ptr %4, align 8, !tbaa !8
  br label %_ZN6google8protobuf5Arena21CreateMessageInternalIN12opencv_caffe13LossParameterEEEPT_PS1_.exit

5:                                                ; preds = %1
  %6 = tail call noundef ptr @_ZN6google8protobuf5Arena23AllocateAlignedWithHookEmPKSt9type_info(ptr noundef nonnull align 8 dereferenceable(32) %0, i64 noundef 40, ptr noundef nonnull @_ZTIN12opencv_caffe13LossParameterE)
  %7 = getelementptr inbounds nuw i8, ptr %6, i64 8
  %8 = ptrtoint ptr %0 to i64
  store i64 %8, ptr %7, align 8, !tbaa !8
  br label %_ZN6google8protobuf5Arena21CreateMessageInternalIN12opencv_caffe13LossParameterEEEPT_PS1_.exit

_ZN6google8protobuf5Arena21CreateMessageInternalIN12opencv_caffe13LossParameterEEEPT_PS1_.exit: ; preds = %_ZN6google8protobuf5Arena14InternalHelperIN12opencv_caffe13LossParameterEE3NewEv.exit, %5
  %.sink3 = phi ptr [ %3, %_ZN6google8protobuf5Arena14InternalHelperIN12opencv_caffe13LossParameterEE3NewEv.exit ], [ %6, %5 ]
  store ptr getelementptr inbounds nuw inrange(-16, 152) (i8, ptr @_ZTVN12opencv_caffe13LossParameterE, i64 16), ptr %.sink3, align 8, !tbaa !11
  %.ptr.i = getelementptr inbounds nuw i8, ptr %.sink3, i64 16
  %9 = getelementptr inbounds nuw i8, ptr %.sink3, i64 32
  tail call void @llvm.memset.p0.i64(ptr noundef nonnull align 8 dereferenceable(13) %.ptr.i, i8 0, i64 13, i1 false)
  store i32 1, ptr %9, align 8, !tbaa !502
  ret ptr %.sink3
}